                              1 ;--------------------------------------------------------
                              2 ; File Created by SDCC : free open source ISO C Compiler 
                              3 ; Version 4.2.2 #13350 (Mac OS X x86_64)
                              4 ;--------------------------------------------------------
                              5 	.module main
                              6 	.optsdcc -mmos6502
                              7 	
                              8 	.globl __TEMP
                              9 	.globl __DPTR
                             10 	.area ZP      (PAG)
   0000                      11 __TEMP:	.ds 8
   0008                      12 __DPTR:	.ds 2
                             13 ;--------------------------------------------------------
                             14 ; Public variables in this module
                             15 ;--------------------------------------------------------
                             16 	.globl _main
                             17 	.globl ___func_map_compressed
                             18 	.globl ___func_map_tiles
                             19 	.globl _rle_decompress
                             20 	.globl _rle_init
                             21 	.globl _set_bkg_tiles
                             22 	.globl _set_bkg_data
                             23 	.globl _wait_vbl_done
                             24 	.globl _datapos
                             25 	.globl _scrollpos
                             26 	.globl _data
                             27 ;--------------------------------------------------------
                             28 ; ZP ram data
                             29 ;--------------------------------------------------------
                             30 	.area ZP      (PAG)
   000A                      31 _main_sloc0_1_0:
   000A                      32 	.ds 1
                             33 ;--------------------------------------------------------
                             34 ; overlayable items in ram
                             35 ;--------------------------------------------------------
                             36 ;--------------------------------------------------------
                             37 ; uninitialized external ram data
                             38 ;--------------------------------------------------------
                             39 	.area BSS
   0000                      40 _data::
   0000                      41 	.ds 18
   0012                      42 _main_map_x_column_196609_73:
   0012                      43 	.ds 1
                             44 ;--------------------------------------------------------
                             45 ; absolute external ram data
                             46 ;--------------------------------------------------------
                             47 	.area DABS    (ABS)
                             48 ;--------------------------------------------------------
                             49 ; initialized external ram data
                             50 ;--------------------------------------------------------
                             51 	.area DATA
   0000                      52 _scrollpos::
   0000                      53 	.ds 1
   0001                      54 _datapos::
   0001                      55 	.ds 1
                             56 ;--------------------------------------------------------
                             57 ; global & static initialisations
                             58 ;--------------------------------------------------------
                             59 	.area _CODE
                             60 	.area GSINIT
                             61 	.area GSFINAL
                             62 	.area GSINIT
                             63 ;--------------------------------------------------------
                             64 ; Home
                             65 ;--------------------------------------------------------
                             66 	.area _CODE
                             67 	.area _CODE
                             68 ;--------------------------------------------------------
                             69 ; code
                             70 ;--------------------------------------------------------
                             71 	.area CODE
                             72 ;------------------------------------------------------------
                             73 ;Allocation info for local variables in function '__func_map_tiles'
                             74 ;------------------------------------------------------------
                             75 ;	src/main.c: 8: INCBIN(map_tiles, "res/map_tiles.bin")
                             76 ;	-----------------------------------------
                             77 ;	 function __func_map_tiles
                             78 ;	-----------------------------------------
                             79 ;	Register assignment is optimal.
                             80 ;	Stack space usage: 0 bytes.
   0000                      81 ___func_map_tiles:
                             82 ;	naked function: no prologue.
   0000                      83 		_map_tiles::
   0000                      84 	 1$:
   0000 FF 00 FF 00 FF 00    85 	 .incbin "res/map_tiles.bin" 
        FF 00 FF 00 FF 00
        DF 20 FF 00 FF 00
        FF 00 FF 00 FF 00
        3F C0 BF 00 FF 00
        FF 00 FF 00 FF 00
        FF 00 FF 00 FF 00
        FF 00 FF 00 FF 00
        FF 00 EF 10 F8 00
        F0 00 F0 00 E1 00
        C5 22 F3 0C FD 03
        F8 07 78 07 5A 25
        BC 43 7C 83 FC 03
        E0 07 FF FF FF FF
        FF FF FF FF FF FF
        FF FF FF FF FF FF
        FF FF FF FF FF FF
        FF FF FF FF FF FF
        DF FF FF FF FF FF
        FF FF FF FF FF FF
        3F FF BF FF FF FF
        FF FF
   0780                      86 	 2$:
                     0780    87 	 ___size_map_tiles = (2$-1$) 
                             88 	 .globl ___size_map_tiles 
                             89 	 .local b___func_map_tiles 
                     0000    90 	 ___bank_map_tiles = 0 
                             91 	 .globl ___bank_map_tiles 
   0780                      92 00101$:
                             93 ;	naked function: no epilogue.
                             94 ;------------------------------------------------------------
                             95 ;Allocation info for local variables in function '__func_map_compressed'
                             96 ;------------------------------------------------------------
                             97 ;	src/main.c: 15: INCBIN(map_compressed, "res/map.bin.rle")
                             98 ;	-----------------------------------------
                             99 ;	 function __func_map_compressed
                            100 ;	-----------------------------------------
                            101 ;	Register assignment is optimal.
                            102 ;	Stack space usage: 0 bytes.
   0780                     103 ___func_map_compressed:
                            104 ;	naked function: no prologue.
   0780                     105 		_map_compressed::
   0780                     106 	 1$:
   0780 08 00 0D 03 0F 02   107 	 .incbin "res/map.bin.rle" 
        02 26 38 FC 05 0E
        06 11 05 05 1E 0D
        01 0E 0C 23 02 02
        0B 16 FC 05 78 07
        12 05 05 1F 0E 02
        02 00 0D 26 2A 00
        19 08 13 06 11 4A
        5D 62 41 35 42 02
        02 01 0E 0B 2B 01
        1A 09 14 07 12 1F
        0E 0C 1C 37 23 03
        0F 00 0D 02 02 00
        39 06 11 05 05 1E
        02 26 38 1E 02 04
        10 1D 0E 02 02 01
        3A 07 12 05 05 20
        24 63 6A 1F 02 05
        05 1E 02 00 0D 02
        3B 06 11 4A 53 4A
        5E 64 02 03 0F 05
        05 1F
   0E45                     108 	 2$:
                     06C5   109 	 ___size_map_compressed = (2$-1$) 
                            110 	 .globl ___size_map_compressed 
                            111 	 .local b___func_map_compressed 
                     0000   112 	 ___bank_map_compressed = 0 
                            113 	 .globl ___bank_map_compressed 
   0E45                     114 00101$:
                            115 ;	naked function: no epilogue.
                            116 ;------------------------------------------------------------
                            117 ;Allocation info for local variables in function 'main'
                            118 ;------------------------------------------------------------
                            119 ;sloc0                     Allocated with name '_main_sloc0_1_0'
                            120 ;i                         Allocated to registers 
                            121 ;__1966080006              Allocated to registers x 
                            122 ;__1966080007              Allocated to registers 
                            123 ;x                         Allocated to registers 
                            124 ;y                         Allocated to registers 
                            125 ;map_x_column              Allocated with name '_main_map_x_column_196609_73'
                            126 ;------------------------------------------------------------
                            127 ;	src/main.c: 22: void main() {
                            128 ;	-----------------------------------------
                            129 ;	 function main
                            130 ;	-----------------------------------------
                            131 ;	Register assignment is optimal.
                            132 ;	Stack space usage: 0 bytes.
   0E45                     133 _main:
                            134 ;	src/main.c: 28: HIDE_LEFT_COLUMN;
   0E45 ADr00r00      [ 4]  135 	lda	_shadow_PPUMASK
   0E48 29 F9         [ 2]  136 	and	#0xf9
   0E4A 8Dr00r00      [ 4]  137 	sta	_shadow_PPUMASK
                            138 ;	src/main.c: 30: SHOW_BKG;
   0E4D ADr00r00      [ 4]  139 	lda	_shadow_PPUMASK
   0E50 09 08         [ 2]  140 	ora	#0x08
   0E52 8Dr00r00      [ 4]  141 	sta	_shadow_PPUMASK
                            142 ;	src/main.c: 33: set_bkg_data(0, INCBIN_SIZE(map_tiles) >> 4, map_tiles);
   0E55 A9r00         [ 2]  143 	lda	#___size_map_tiles
   0E57 A2s00         [ 2]  144 	ldx	#>___size_map_tiles
   0E59 86*00         [ 3]  145 	stx	*(__TEMP+0)
   0E5B 46*00         [ 5]  146 	lsr	*(__TEMP+0)
   0E5D 6A            [ 2]  147 	ror	a
   0E5E 46*00         [ 5]  148 	lsr	*(__TEMP+0)
   0E60 6A            [ 2]  149 	ror	a
   0E61 46*00         [ 5]  150 	lsr	*(__TEMP+0)
   0E63 6A            [ 2]  151 	ror	a
   0E64 46*00         [ 5]  152 	lsr	*(__TEMP+0)
   0E66 6A            [ 2]  153 	ror	a
   0E67 A6*00         [ 3]  154 	ldx	*(__TEMP+0)
   0E69 A2r00         [ 2]  155 	ldx	#_map_tiles
   0E6B 8Er00r00      [ 4]  156 	stx	_set_bkg_data_PARM_3
   0E6E A2s00         [ 2]  157 	ldx	#>_map_tiles
   0E70 8Er01r00      [ 4]  158 	stx	(_set_bkg_data_PARM_3 + 1)
   0E73 AA            [ 2]  159 	tax
   0E74 A9 00         [ 2]  160 	lda	#0x00
   0E76 20r00r00      [ 6]  161 	jsr	_set_bkg_data
                            162 ;	src/main.c: 36: rle_init(map_compressed);
   0E79 A2s07         [ 2]  163 	ldx	#>_map_compressed
   0E7B A9r80         [ 2]  164 	lda	#_map_compressed
   0E7D 20r00r00      [ 6]  165 	jsr	_rle_init
                            166 ;	src/main.c: 41: for (uint8_t i = 0; (i != DEVICE_SCREEN_WIDTH + 1); i++) {
   0E80 A2 00         [ 2]  167 	ldx	#0x00
   0E82 86*0A         [ 3]  168 	stx	*_main_sloc0_1_0
   0E84                     169 00113$:
   0E84 A5*0A         [ 3]  170 	lda	*_main_sloc0_1_0
   0E86 C9 21         [ 2]  171 	cmp	#0x21
   0E88 D0 03         [ 4]  172 	bne	00138$
   0E8A 4CrBBr0E      [ 3]  173 	jmp	00103$
   0E8D                     174 00138$:
                            175 ;	src/main.c: 42: rle_decompress(data, MAP_DATA_HEIGHT);
   0E8D A2 12         [ 2]  176 	ldx	#0x12
   0E8F 8Er00r00      [ 4]  177 	stx	_rle_decompress_PARM_2
   0E92 A2s00         [ 2]  178 	ldx	#>_data
   0E94 A9r00         [ 2]  179 	lda	#_data
   0E96 20r00r00      [ 6]  180 	jsr	_rle_decompress
                            181 ;	src/main.c: 47: set_bkg_tiles(i & (DEVICE_SCREEN_BUFFER_WIDTH-1), 0, 1, MAP_DATA_HEIGHT, data);
   0E99 A5*0A         [ 3]  182 	lda	*_main_sloc0_1_0
   0E9B 29 1F         [ 2]  183 	and	#0x1f
   0E9D A2r00         [ 2]  184 	ldx	#_data
   0E9F 8Er00r00      [ 4]  185 	stx	_set_bkg_tiles_PARM_5
   0EA2 A2s00         [ 2]  186 	ldx	#>_data
   0EA4 8Er01r00      [ 4]  187 	stx	(_set_bkg_tiles_PARM_5 + 1)
   0EA7 A2 01         [ 2]  188 	ldx	#0x01
   0EA9 8Er00r00      [ 4]  189 	stx	_set_bkg_tiles_PARM_3
   0EAC A2 12         [ 2]  190 	ldx	#0x12
   0EAE 8Er00r00      [ 4]  191 	stx	_set_bkg_tiles_PARM_4
   0EB1 A2 00         [ 2]  192 	ldx	#0x00
   0EB3 20r00r00      [ 6]  193 	jsr	_set_bkg_tiles
                            194 ;	src/main.c: 41: for (uint8_t i = 0; (i != DEVICE_SCREEN_WIDTH + 1); i++) {
   0EB6 E6*0A         [ 5]  195 	inc	*_main_sloc0_1_0
   0EB8 4Cr84r0E      [ 3]  196 	jmp	00113$
   0EBB                     197 00103$:
                            198 ;	src/main.c: 51: datapos = 0;
   0EBB A2 00         [ 2]  199 	ldx	#0x00
   0EBD 8Er01r00      [ 4]  200 	stx	_datapos
                            201 ;	src/main.c: 52: scrollpos = 1;
   0EC0 E8            [ 2]  202 	inx
   0EC1 8Er00r00      [ 4]  203 	stx	_scrollpos
                            204 ;	src/main.c: 53: while(TRUE) {
   0EC4                     205 00109$:
                            206 ;	src/main.c: 55: wait_vbl_done();
   0EC4 20r00r00      [ 6]  207 	jsr	_wait_vbl_done
                            208 ;	src/main.c: 60: scrollpos++;
   0EC7 EEr00r00      [ 6]  209 	inc	_scrollpos
                            210 ;	src/main.c: 61: move_bkg(scrollpos, 0);
   0ECA AEr00r00      [ 4]  211 	ldx	_scrollpos
                            212 ;	../../../include/nes/nes.h: 618: bkg_scroll_x = x, bkg_scroll_y = y;
   0ECD 8Er00r00      [ 4]  213 	stx	_bkg_scroll_x
   0ED0 A0 00         [ 2]  214 	ldy	#0x00
   0ED2 8Cr00r00      [ 4]  215 	sty	_bkg_scroll_y
                            216 ;	src/main.c: 65: if ((scrollpos & 0x07u) == 0) {
   0ED5 A9 07         [ 2]  217 	lda	#0x07
   0ED7 86*00         [ 3]  218 	stx	*(__TEMP+0)
   0ED9 25*00         [ 3]  219 	and	*(__TEMP+0)
   0EDB F0 03         [ 4]  220 	beq	00139$
   0EDD 4CrC4r0E      [ 3]  221 	jmp	00109$
   0EE0                     222 00139$:
                            223 ;	src/main.c: 69: datapos = (scrollpos >> 3);
   0EE0 8A            [ 2]  224 	txa
   0EE1 4A            [ 2]  225 	lsr	a
   0EE2 4A            [ 2]  226 	lsr	a
   0EE3 4A            [ 2]  227 	lsr	a
   0EE4 8Dr01r00      [ 4]  228 	sta	_datapos
                            229 ;	src/main.c: 70: uint8_t map_x_column = (datapos + DEVICE_SCREEN_WIDTH) & (DEVICE_SCREEN_BUFFER_WIDTH-1);
   0EE7 18            [ 2]  230 	clc
   0EE8 69 20         [ 2]  231 	adc	#0x20
   0EEA 29 1F         [ 2]  232 	and	#0x1f
   0EEC 8Dr12r00      [ 4]  233 	sta	_main_map_x_column_196609_73
                            234 ;	src/main.c: 75: if (!rle_decompress(data, MAP_DATA_HEIGHT)) {
   0EEF A2 12         [ 2]  235 	ldx	#0x12
   0EF1 8Er00r00      [ 4]  236 	stx	_rle_decompress_PARM_2
   0EF4 A2s00         [ 2]  237 	ldx	#>_data
   0EF6 A9r00         [ 2]  238 	lda	#_data
   0EF8 20r00r00      [ 6]  239 	jsr	_rle_decompress
   0EFB C9 00         [ 2]  240 	cmp	#0x00
   0EFD F0 03         [ 4]  241 	beq	00140$
   0EFF 4Cr15r0F      [ 3]  242 	jmp	00105$
   0F02                     243 00140$:
                            244 ;	src/main.c: 76: rle_init(map_compressed);
   0F02 A2s07         [ 2]  245 	ldx	#>_map_compressed
   0F04 A9r80         [ 2]  246 	lda	#_map_compressed
   0F06 20r00r00      [ 6]  247 	jsr	_rle_init
                            248 ;	src/main.c: 77: rle_decompress(data, MAP_DATA_HEIGHT);
   0F09 A2 12         [ 2]  249 	ldx	#0x12
   0F0B 8Er00r00      [ 4]  250 	stx	_rle_decompress_PARM_2
   0F0E A2s00         [ 2]  251 	ldx	#>_data
   0F10 A9r00         [ 2]  252 	lda	#_data
   0F12 20r00r00      [ 6]  253 	jsr	_rle_decompress
   0F15                     254 00105$:
                            255 ;	src/main.c: 83: set_bkg_tiles(map_x_column, 0, 1, MAP_DATA_HEIGHT, data);
   0F15 A9r00         [ 2]  256 	lda	#_data
   0F17 8Dr00r00      [ 4]  257 	sta	_set_bkg_tiles_PARM_5
   0F1A A9s00         [ 2]  258 	lda	#>_data
   0F1C 8Dr01r00      [ 4]  259 	sta	(_set_bkg_tiles_PARM_5 + 1)
   0F1F A2 01         [ 2]  260 	ldx	#0x01
   0F21 8Er00r00      [ 4]  261 	stx	_set_bkg_tiles_PARM_3
   0F24 A2 12         [ 2]  262 	ldx	#0x12
   0F26 8Er00r00      [ 4]  263 	stx	_set_bkg_tiles_PARM_4
   0F29 ADr12r00      [ 4]  264 	lda	_main_map_x_column_196609_73
   0F2C A2 00         [ 2]  265 	ldx	#0x00
   0F2E 20r00r00      [ 6]  266 	jsr	_set_bkg_tiles
   0F31 4CrC4r0E      [ 3]  267 	jmp	00109$
   0F34                     268 00115$:
                            269 ;	src/main.c: 86: }
   0F34 60            [ 6]  270 	rts
                            271 	.area CODE
                            272 	.area RODATA
                            273 	.area XINIT
   0000                     274 __xinit__scrollpos:
   0000 00                  275 	.db #0x00	; 0
   0001                     276 __xinit__datapos:
   0001 00                  277 	.db #0x00	; 0
                            278 	.area CABS    (ABS)
